; Function Attrs: mustprogress uwtable
define void @_ZN9grpc_core21promise_filter_detail14ServerCallData32RecvInitialMetadataReadyCallbackEPvN4absl12lts_202308026StatusE(ptr noundef nonnull %arg, ptr nocapture noundef %error) #3 align 2 personality ptr @__gxx_personality_v0 {
entry:
  %agg.tmp = alloca %"class.absl::lts_20230802::Status", align 8
  %0 = load i64, ptr %error, align 8
  store i64 %0, ptr %agg.tmp, align 8
  store i64 54, ptr %error, align 8
  invoke void @_ZN9grpc_core21promise_filter_detail14ServerCallData24RecvInitialMetadataReadyEN4absl12lts_202308026StatusE(ptr noundef nonnull align 16 dereferenceable(297) %arg, ptr noundef nonnull %agg.tmp)
          to label %invoke.cont unwind label %lpad

invoke.cont:                                      ; preds = %entry
  %1 = load i64, ptr %agg.tmp, align 8
  %and.i.i.i = and i64 %1, 1
  %cmp.i.i.i = icmp eq i64 %and.i.i.i, 0
  br i1 %cmp.i.i.i, label %_ZN4absl12lts_202308026StatusD2Ev.exit, label %if.then.i.i

if.then.i.i:                                      ; preds = %invoke.cont
  invoke void @_ZN4absl12lts_202308026Status15UnrefNonInlinedEm(i64 noundef %1)
          to label %_ZN4absl12lts_202308026StatusD2Ev.exit unwind label %terminate.lpad.i

terminate.lpad.i:                                 ; preds = %if.then.i.i
  %2 = landingpad { ptr, i32 }
          catch ptr null
  %3 = extractvalue { ptr, i32 } %2, 0
  call void @__clang_call_terminate(ptr %3) #32
  unreachable

_ZN4absl12lts_202308026StatusD2Ev.exit:           ; preds = %invoke.cont, %if.then.i.i
  ret void

lpad:                                             ; preds = %entry
  %4 = landingpad { ptr, i32 }
          cleanup
  call void @_ZN4absl12lts_202308026StatusD2Ev(ptr noundef nonnull align 8 dereferenceable(8) %agg.tmp) #31
  resume { ptr, i32 } %4
}